; Function Attrs: mustprogress nounwind uwtable
define internal fastcc void @"_ZZN7V3Sched12_GLOBAL__N_119createInputCombLoopEP10AstNetlistP8AstCFuncR14SenExprBuilderRNS_12LogicByScopeERKNS_17VirtIfaceTriggersEEN3$_1D2Ev"(ptr noundef nonnull align 8 dereferenceable(64) %0) unnamed_addr #4 align 2 personality ptr @__gxx_personality_v0 {
  %2 = getelementptr inbounds i8, ptr %0, i64 16
  %3 = getelementptr inbounds i8, ptr %0, i64 32
  %4 = load ptr, ptr %3, align 8
  invoke void @_ZNSt8_Rb_treeIPK8AstIfaceSt4pairIKS2_P10AstSenTreeESt10_Select1stIS7_ESt4lessIS2_ESaIS7_EE8_M_eraseEPSt13_Rb_tree_nodeIS7_E(ptr noundef nonnull align 8 dereferenceable(48) %2, ptr noundef %4)
          to label %_ZNSt3mapIPK8AstIfaceP10AstSenTreeSt4lessIS2_ESaISt4pairIKS2_S4_EEED2Ev.exit unwind label %5

5:                                                ; preds = %1
  %6 = landingpad { ptr, i32 }
          catch ptr null
  %7 = extractvalue { ptr, i32 } %6, 0
  tail call void @__clang_call_terminate(ptr %7) #28
  unreachable

_ZNSt3mapIPK8AstIfaceP10AstSenTreeSt4lessIS2_ESaISt4pairIKS2_S4_EEED2Ev.exit: ; preds = %1
  ret void
}